; Function Attrs: mustprogress nounwind uwtable
define hidden void @_ZN12outputStream5stampEv(ptr noundef nonnull align 8 dereferenceable(56) %0) local_unnamed_addr #0 align 2 {
  %2 = alloca [40 x i8], align 16
  %3 = getelementptr inbounds i8, ptr %0, i64 32
  %4 = load i64, ptr %3, align 8
  %.not = icmp eq i64 %4, 0
  br i1 %.not, label %5, label %6

5:                                                ; preds = %1
  tail call void @_ZN9TimeStamp6updateEv(ptr noundef nonnull align 8 dereferenceable(8) %3) #21
  br label %6

6:                                                ; preds = %5, %1
  %7 = tail call noundef double @_ZNK9TimeStamp7secondsEv(ptr noundef nonnull align 8 dereferenceable(8) %3) #21
  %8 = call i32 (ptr, i64, ptr, ...) @jio_snprintf(ptr noundef nonnull %2, i64 noundef 40, ptr noundef nonnull @.str.6, double noundef %7) #21
  %9 = call i64 @strlen(ptr noundef nonnull dereferenceable(1) %2) #22
  %10 = getelementptr inbounds i8, ptr %0, i64 12
  %11 = load i8, ptr %10, align 4
  %12 = trunc i8 %11 to i1
  %13 = getelementptr inbounds i8, ptr %0, i64 16
  %14 = load i32, ptr %13, align 8
  %15 = icmp eq i32 %14, 0
  %or.cond.i.i = select i1 %12, i1 %15, i1 false
  %16 = getelementptr inbounds i8, ptr %0, i64 8
  %17 = load i32, ptr %16, align 8
  %18 = icmp sgt i32 %17, 0
  %or.cond6.i.i = select i1 %or.cond.i.i, i1 %18, i1 false
  br i1 %or.cond6.i.i, label %.preheader.i.i.i.i, label %_ZN12outputStream9print_rawEPKc.exit

.preheader.i.i.i.i:                               ; preds = %6, %.preheader.i.i.i.i
  %.0.i.i.i.i = phi i32 [ %24, %.preheader.i.i.i.i ], [ %17, %6 ]
  %19 = call i32 @llvm.umin.i32(i32 %.0.i.i.i.i, i32 8)
  %20 = zext nneg i32 %19 to i64
  %21 = load ptr, ptr %0, align 8
  %22 = getelementptr inbounds i8, ptr %21, i64 8
  %23 = load ptr, ptr %22, align 8
  call void %23(ptr noundef nonnull align 8 dereferenceable(56) %0, ptr noundef nonnull @.str.4, i64 noundef %20) #21
  %24 = sub nsw i32 %.0.i.i.i.i, %19
  %.old1.i.i.i.i = icmp sgt i32 %24, 0
  br i1 %.old1.i.i.i.i, label %.preheader.i.i.i.i, label %_ZN12outputStream9print_rawEPKc.exit

_ZN12outputStream9print_rawEPKc.exit:             ; preds = %.preheader.i.i.i.i, %6
  %25 = load ptr, ptr %0, align 8
  %26 = getelementptr inbounds i8, ptr %25, i64 8
  %27 = load ptr, ptr %26, align 8
  call void %27(ptr noundef nonnull align 8 dereferenceable(56) %0, ptr noundef nonnull %2, i64 noundef %9) #21
  ret void
}